target datalayout = "e-m:e-p270:32:32-p271:32:32-p272:64:64-i64:64-i128:128-f80:128-n8:16:32:64-S128"
target triple = "x86_64-pc-linux-gnu"

%struct.archive_read = type { %struct.archive, ptr, i32, i64, i64, %struct.archive_read_client, [16 x %struct.archive_read_filter_bidder], ptr, i32, i64, i32, i32, [16 x %struct.archive_format_descriptor], ptr, ptr, ptr, %struct.anon }
%struct.archive = type { i32, i32, ptr, i32, ptr, i32, i32, ptr, %struct.archive_string, ptr, i32, i32, ptr, ptr, i64, i64, i64, i8, i64 }
%struct.archive_string = type { ptr, i64, i64 }
%struct.archive_read_client = type { ptr, ptr, ptr, ptr, ptr, ptr, i32, i32, i64, ptr }
%struct.archive_read_filter_bidder = type { ptr, ptr, ptr }
%struct.archive_format_descriptor = type { ptr, ptr, ptr, ptr, ptr, ptr, ptr, ptr, ptr, ptr, ptr }
%struct.anon = type { ptr, ptr, i32, ptr, ptr }

; Function Attrs: nounwind uwtable
define dso_local i32 @archive_read_format_capabilities(ptr noundef %0) #0 {
  %2 = alloca i32, align 4
  %3 = alloca ptr, align 8
  %4 = alloca ptr, align 8
  %5 = alloca i32, align 4
  store ptr %0, ptr %3, align 8, !tbaa !31
  call void @llvm.lifetime.start.p0(i64 8, ptr %4) #11
  %6 = load ptr, ptr %3, align 8, !tbaa !31
  store ptr %6, ptr %4, align 8, !tbaa !4
  %7 = load ptr, ptr %4, align 8, !tbaa !4
  %8 = icmp ne ptr %7, null
  br i1 %8, label %9, label %29

9:                                                ; preds = %1
  %10 = load ptr, ptr %4, align 8, !tbaa !4
  %11 = getelementptr inbounds nuw %struct.archive_read, ptr %10, i32 0, i32 13
  %12 = load ptr, ptr %11, align 8, !tbaa !63
  %13 = icmp ne ptr %12, null
  br i1 %13, label %14, label %29

14:                                               ; preds = %9
  %15 = load ptr, ptr %4, align 8, !tbaa !4
  %16 = getelementptr inbounds nuw %struct.archive_read, ptr %15, i32 0, i32 13
  %17 = load ptr, ptr %16, align 8, !tbaa !63
  %18 = getelementptr inbounds nuw %struct.archive_format_descriptor, ptr %17, i32 0, i32 9
  %19 = load ptr, ptr %18, align 8, !tbaa !94
  %20 = icmp ne ptr %19, null
  br i1 %20, label %21, label %29

21:                                               ; preds = %14
  %22 = load ptr, ptr %4, align 8, !tbaa !4
  %23 = getelementptr inbounds nuw %struct.archive_read, ptr %22, i32 0, i32 13
  %24 = load ptr, ptr %23, align 8, !tbaa !63
  %25 = getelementptr inbounds nuw %struct.archive_format_descriptor, ptr %24, i32 0, i32 9
  %26 = load ptr, ptr %25, align 8, !tbaa !94
  %27 = load ptr, ptr %4, align 8, !tbaa !4
  %28 = call i32 %26(ptr noundef %27)
  store i32 %28, ptr %2, align 4
  store i32 1, ptr %5, align 4
  br label %30

29:                                               ; preds = %14, %9, %1
  store i32 0, ptr %2, align 4
  store i32 1, ptr %5, align 4
  br label %30

30:                                               ; preds = %29, %21
  call void @llvm.lifetime.end.p0(i64 8, ptr %4) #11
  %31 = load i32, ptr %2, align 4
  ret i32 %31
}