; Function Attrs: nounwind uwtable
define dso_local i32 @archive_read_format_capabilities(ptr noundef %0) local_unnamed_addr #0 {
  %.not = icmp eq ptr %0, null
  br i1 %.not, label %10, label %2

2:                                                ; preds = %1
  %3 = getelementptr inbounds nuw i8, ptr %0, i64 2072
  %4 = load ptr, ptr %3, align 8, !tbaa !73
  %.not9 = icmp eq ptr %4, null
  br i1 %.not9, label %10, label %5

5:                                                ; preds = %2
  %6 = getelementptr inbounds nuw i8, ptr %4, i64 72
  %7 = load ptr, ptr %6, align 8, !tbaa !85
  %.not10 = icmp eq ptr %7, null
  br i1 %.not10, label %10, label %8

8:                                                ; preds = %5
  %9 = tail call i32 %7(ptr noundef nonnull %0) #15
  br label %10

10:                                               ; preds = %1, %2, %5, %8
  %.0 = phi i32 [ %9, %8 ], [ 0, %5 ], [ 0, %2 ], [ 0, %1 ]
  ret i32 %.0
}